; Function Attrs: mustprogress nounwind memory(argmem: readwrite, inaccessiblemem: readwrite) uwtable
define void @_ZN8facebook5velox6memory15MallocAllocator9freeBytesEPvm(ptr nocapture noundef nonnull align 8 dereferenceable(1016) %this, ptr nocapture noundef %p, i64 noundef %bytes) unnamed_addr #13 align 2 personality ptr @__gxx_personality_v0 {
entry:
  tail call void @free(ptr noundef %p) #21
  %allocatedBytes_.i = getelementptr inbounds i8, ptr %this, i64 896
  %0 = atomicrmw sub ptr %allocatedBytes_.i, i64 %bytes seq_cst, align 8
  %cmp.i = icmp slt i64 %0, %bytes
  br i1 %cmp.i, label %if.then.i, label %_ZN8facebook5velox6memory15MallocAllocator14decrementUsageEl.exit

if.then.i:                                        ; preds = %entry
  tail call void @llvm.trap()
  unreachable

_ZN8facebook5velox6memory15MallocAllocator14decrementUsageEl.exit: ; preds = %entry
  ret void
}